BL51 BANKED LINKER/LOCATER V6.22                                                        04/07/2021  23:27:21  PAGE 1


BL51 BANKED LINKER/LOCATER V6.22, INVOKED BY:
F:\KEIL\C51\BIN\BL51.EXE main.obj, LCD_ALI.obj, FFT.obj, HD7279.obj, STC_HW.obj TO test RAMSIZE (256)


MEMORY MODEL: LARGE WITH FLOATING POINT ARITHMETIC


INPUT MODULES INCLUDED:
  main.obj (MAIN)
  LCD_ALI.obj (LCD_ALI)
  FFT.obj (FFT)
  HD7279.obj (HD7279)
  STC_HW.obj (STC_HW)
  F:\KEIL\C51\LIB\C51FPL.LIB (?C?FPMUL)
  F:\KEIL\C51\LIB\C51FPL.LIB (?C?FPDIV)
  F:\KEIL\C51\LIB\C51FPL.LIB (?C?FCAST)
  F:\KEIL\C51\LIB\C51FPL.LIB (?C?CASTF)
  F:\KEIL\C51\LIB\C51FPL.LIB (SQRT)
  F:\KEIL\C51\LIB\C51FPL.LIB (SIN)
  F:\KEIL\C51\LIB\C51FPL.LIB (?C?FPGETOPN)
  F:\KEIL\C51\LIB\C51FPL.LIB (?C?FPADD)
  F:\KEIL\C51\LIB\C51FPL.LIB (?C?FPSERIES)
  F:\KEIL\C51\LIB\C51L.LIB (?C_STARTUP)
  F:\KEIL\C51\LIB\C51L.LIB (?C?CLDPTR)
  F:\KEIL\C51\LIB\C51L.LIB (?C?CLDOPTR)
  F:\KEIL\C51\LIB\C51L.LIB (?C?IMUL)
  F:\KEIL\C51\LIB\C51L.LIB (?C?UIDIV)
  F:\KEIL\C51\LIB\C51L.LIB (?C?SIDIV)
  F:\KEIL\C51\LIB\C51L.LIB (?C?IILDX)
  F:\KEIL\C51\LIB\C51L.LIB (?C?ILDIX)
  F:\KEIL\C51\LIB\C51L.LIB (?C?LMUL)
  F:\KEIL\C51\LIB\C51L.LIB (?C?ULDIV)
  F:\KEIL\C51\LIB\C51L.LIB (?C?SLDIV)
  F:\KEIL\C51\LIB\C51L.LIB (?C?LNEG)
  F:\KEIL\C51\LIB\C51L.LIB (?C?SLCMP)
  F:\KEIL\C51\LIB\C51L.LIB (?C?ULCMP)
  F:\KEIL\C51\LIB\C51L.LIB (?C?SLSHR)
  F:\KEIL\C51\LIB\C51L.LIB (?C?LLDXDATA)
  F:\KEIL\C51\LIB\C51L.LIB (?C?LLDCODE)
  F:\KEIL\C51\LIB\C51L.LIB (?C?LLDXDATA0)
  F:\KEIL\C51\LIB\C51L.LIB (?C?LLDCODE0)
  F:\KEIL\C51\LIB\C51L.LIB (?C?LSTXDATA)
  F:\KEIL\C51\LIB\C51L.LIB (?C?LSTKXDATA)
  F:\KEIL\C51\LIB\C51L.LIB (?C?LIMUL)
  F:\KEIL\C51\LIB\C51L.LIB (?C_INIT)


LINK MAP OF MODULE:  test (MAIN)


            TYPE    BASE      LENGTH    RELOCATION   SEGMENT NAME
            -----------------------------------------------------

            * * * * * * *   D A T A   M E M O R Y   * * * * * * *
            REG     0000H     0008H     ABSOLUTE     "REG BANK 0"
                    0008H     0018H                  *** GAP ***
            BIT     0020H.0   0000H.6   UNIT         ?BI?MAIN
            BIT     0020H.6   0000H.1   UNIT         _BIT_GROUP_
BL51 BANKED LINKER/LOCATER V6.22                                                      04/07/2021  23:27:21  PAGE 2


                    0020H.7   0000H.1                *** GAP ***
            IDATA   0021H     0001H     UNIT         ?STACK

            * * * * * * *  X D A T A   M E M O R Y  * * * * * * *
            XDATA   0000H     1000H     UNIT         ?XD?FFT
            XDATA   1000H     0098H     UNIT         ?XD?MAIN
            XDATA   1098H     0030H     UNIT         _XDATA_GROUP_
            XDATA   10C8H     001CH     UNIT         ?XD?_GUI_LINE?LCD_ALI
            XDATA   10E4H     0011H     UNIT         ?XD?_GUI_CIRCLE?LCD_ALI
            XDATA   10F5H     0011H     UNIT         ?XD?LCD_ALI
            XDATA   1106H     000EH     UNIT         ?XD?_GUI_BMP16?LCD_ALI
            XDATA   1114H     000EH     UNIT         ?XD?_DISP_HANZI?LCD_ALI
            XDATA   1122H     000EH     UNIT         ?XD?_GUI_FONT16?LCD_ALI
            XDATA   1130H     000EH     UNIT         ?XD?_GUI_FONT24?LCD_ALI
            XDATA   113EH     000BH     UNIT         ?XD?_DISP_PHOTO16_PRO?LCD_ALI
            XDATA   1149H     000AH     UNIT         ?XD?__DRAW_CIRCLE_8?LCD_ALI

            * * * * * * *   C O D E   M E M O R Y   * * * * * * *
            CODE    0000H     0003H     ABSOLUTE     
                    0003H     0008H                  *** GAP ***
            CODE    000BH     0003H     ABSOLUTE     
                    000EH     0015H                  *** GAP ***
            CODE    0023H     0003H     ABSOLUTE     
                    0026H     0035H                  *** GAP ***
            CODE    005BH     0003H     ABSOLUTE     
                    005EH     07A2H                  *** GAP ***
            CODE    0800H     2150H     UNIT         ?CO?MAIN
            CODE    2950H     1800H     UNIT         ?CO?FFT
            CODE    4150H     150EH     UNIT         ?PR?MAIN?MAIN
            CODE    565EH     1074H     UNIT         ?CO?LCD_ALI
            CODE    66D2H     06C1H     UNIT         ?C?LIB_CODE
            CODE    6D93H     05EAH     UNIT         ?PR?FFT?FFT
            CODE    737DH     0323H     UNIT         ?PR?INTTIMER0?MAIN
            CODE    76A0H     0209H     UNIT         ?PR?_GUI_SHOWCHAR?LCD_ALI
            CODE    78A9H     0203H     UNIT         ?PR?LCD_INIT?LCD_ALI
            CODE    7AACH     01F2H     UNIT         ?PR?_GUI_CIRCLE?LCD_ALI
            CODE    7C9EH     01EEH     UNIT         ?PR?_GUI_LINE?LCD_ALI
            CODE    7E8CH     0188H     UNIT         ?PR?SIN?SIN
            CODE    8014H     013DH     UNIT         ?PR?__DRAW_CIRCLE_8?LCD_ALI
            CODE    8151H     0111H     UNIT         ?PR?_GUI_SHOWNUM?LCD_ALI
            CODE    8262H     00EDH     UNIT         ?PR?_DISP_PHOTO?LCD_ALI
            CODE    834FH     00ECH     UNIT         ?PR?_GUI_BMP16?LCD_ALI
            CODE    843BH     00E8H     UNIT         ?PR?_GUI_FONT24?LCD_ALI
            CODE    8523H     00E4H     UNIT         ?PR?_GUI_FILLREC?LCD_ALI
            CODE    8607H     00E2H     UNIT         ?PR?_GUI_FONT16?LCD_ALI
            CODE    86E9H     00C9H     UNIT         ?PR?_DISP_HANZI?LCD_ALI
            CODE    87B2H     00C7H     UNIT         ?PR?_GUI_SHOWSTR?LCD_ALI
            CODE    8879H     00ACH     UNIT         ?PR?SQRT?SQRT
            CODE    8925H     00AAH     UNIT         ?PR?GETSIN?MAIN
            CODE    89CFH     00AAH     UNIT         ?PR?_LCD_CLEAR?LCD_ALI
            CODE    8A79H     0092H     UNIT         ?PR?INTERFACE?MAIN
            CODE    8B0BH     008CH     UNIT         ?C_C51STARTUP
            CODE    8B97H     0086H     UNIT         ?PR?_GUI_RECTANGLE?LCD_ALI
            CODE    8C1DH     007EH     UNIT         ?PR?_GUI_HORZ?LCD_ALI
            CODE    8C9BH     007BH     UNIT         ?PR?GETSQR?MAIN
            CODE    8D16H     006AH     UNIT         ?PR?_GUI_VERT?LCD_ALI
            CODE    8D80H     0069H     UNIT         ?PR?_DISP_PHOTO16_PRO?LCD_ALI
BL51 BANKED LINKER/LOCATER V6.22                                                      04/07/2021  23:27:21  PAGE 3


            CODE    8DE9H     0065H     UNIT         ?PR?SYSTEMINIT?STC_HW
            CODE    8E4EH     0064H     UNIT         ?PR?_LCD_SETCURSOR?LCD_ALI
            CODE    8EB2H     0059H     UNIT         ?PR?SANJIAO?MAIN
            CODE    8F0BH     0051H     UNIT         ?PR?_LCD_SETWINDOWS?LCD_ALI
            CODE    8F5CH     0049H     UNIT         ?PR?INTUART1?MAIN
            CODE    8FA5H     0049H     UNIT         ?PR?_MYPOW?LCD_ALI
            CODE    8FEEH     0044H     UNIT         ?C?LDIV
            CODE    9032H     0041H     UNIT         ?PR?RECEIVE7279B?HD7279
            CODE    9073H     003EH     UNIT         ?PR?_AD7323?MAIN
            CODE    90B1H     003EH     UNIT         ?PR?_SEND7279B?HD7279
            CODE    90EFH     003BH     UNIT         ?PR?LCD_SETPARAM?LCD_ALI
            CODE    912AH     0033H     UNIT         ?PR?_GUI_DRAWPOINT?LCD_ALI
            CODE    915DH     002FH     UNIT         ?PR?_LCD_WDR?LCD_ALI
            CODE    918CH     0026H     UNIT         ?PR?_DELAY_MS?LCD_ALI
            CODE    91B2H     0026H     UNIT         ?PR?_LCD_WIR?LCD_ALI
            CODE    91D8H     0020H     UNIT         ?CO?HD7279
            CODE    91F8H     0016H     UNIT         ?C_INITSEG
            CODE    920EH     0015H     UNIT         ?PR?_SEND7279_CMD_DATA?HD7279
            CODE    9223H     000FH     UNIT         ?PR?_SPI_SEND?STC_HW
            CODE    9232H     000DH     UNIT         ?PR?READ7279_KEY?HD7279
            CODE    923FH     000DH     UNIT         ?PR?SPI_CONF?STC_HW
            CODE    924CH     000BH     UNIT         ?PR?LCD_WRITERAM_PREPARE?LCD_ALI
            CODE    9257H     000AH     UNIT         ?PR?READ7279_NUM?HD7279
            CODE    9261H     0008H     UNIT         ?PR?_SEND7279_CMD?HD7279
            CODE    9269H     0008H     UNIT         ?PR?SPI_RECV?STC_HW
            CODE    9271H     0007H     UNIT         ?PR?_DELAY7279?HD7279
            CODE    9278H     0003H     UNIT         ?PR?INT3?MAIN



OVERLAY MAP OF MODULE:   test (MAIN)


SEGMENT                                     BIT_GROUP          XDATA_GROUP
  +--> CALLED SEGMENT                    START    LENGTH     START    LENGTH
----------------------------------------------------------------------------
?PR?INTTIMER0?MAIN                       -----    -----      1098H    0001H
  +--> ?PR?_AD7323?MAIN
  +--> ?CO?FFT

*** NEW ROOT ***************************************************

?C_C51STARTUP                            -----    -----      -----    -----
  +--> ?PR?MAIN?MAIN
  +--> ?C_INITSEG

?PR?MAIN?MAIN                            -----    -----      1099H    000AH
  +--> ?PR?GETSIN?MAIN
  +--> ?PR?FFT?FFT
  +--> ?PR?SQRT?SQRT
  +--> ?PR?SYSTEMINIT?STC_HW
  +--> ?PR?_SEND7279_CMD?HD7279
  +--> ?PR?_SEND7279_CMD_DATA?HD7279
  +--> ?PR?LCD_INIT?LCD_ALI
  +--> ?PR?_LCD_CLEAR?LCD_ALI
  +--> ?PR?INTERFACE?MAIN
  +--> ?CO?MAIN
BL51 BANKED LINKER/LOCATER V6.22                                                      04/07/2021  23:27:21  PAGE 4


  +--> ?PR?_DISP_PHOTO?LCD_ALI
  +--> ?PR?_GUI_SHOWSTR?LCD_ALI
  +--> ?PR?_GUI_SHOWCHAR?LCD_ALI
  +--> ?PR?_GUI_SHOWNUM?LCD_ALI
  +--> ?PR?READ7279_NUM?HD7279
  +--> ?PR?_AD7323?MAIN
  +--> ?PR?_GUI_FILLREC?LCD_ALI

?PR?GETSIN?MAIN                          -----    -----      10A3H    0002H
  +--> ?PR?SIN?SIN
  +--> ?CO?FFT

?PR?SIN?SIN                              0020H.6  0000H.1    10A5H    0004H

?PR?FFT?FFT                              -----    -----      10A3H    0016H
  +--> ?CO?FFT

?PR?SQRT?SQRT                            -----    -----      10A3H    0004H

?PR?_SEND7279_CMD?HD7279                 -----    -----      -----    -----
  +--> ?PR?_SEND7279B?HD7279

?PR?_SEND7279B?HD7279                    -----    -----      10A4H    0002H
  +--> ?PR?_DELAY7279?HD7279

?PR?_SEND7279_CMD_DATA?HD7279            -----    -----      10A3H    0001H
  +--> ?PR?_SEND7279B?HD7279

?PR?LCD_INIT?LCD_ALI                     -----    -----      -----    -----
  +--> ?PR?_DELAY_MS?LCD_ALI
  +--> ?PR?_LCD_WIR?LCD_ALI
  +--> ?PR?_LCD_WDR?LCD_ALI

?PR?_LCD_WIR?LCD_ALI                     -----    -----      -----    -----
  +--> ?PR?_LCD_WDR?LCD_ALI

?PR?_LCD_CLEAR?LCD_ALI                   -----    -----      10A3H    000AH
  +--> ?PR?_LCD_SETWINDOWS?LCD_ALI
  +--> ?PR?_LCD_WDR?LCD_ALI

?PR?_LCD_SETWINDOWS?LCD_ALI              -----    -----      10C0H    0008H
  +--> ?PR?_LCD_WIR?LCD_ALI
  +--> ?PR?_LCD_WDR?LCD_ALI
  +--> ?PR?LCD_WRITERAM_PREPARE?LCD_ALI

?PR?LCD_WRITERAM_PREPARE?LCD_ALI         -----    -----      -----    -----
  +--> ?PR?_LCD_WIR?LCD_ALI

?PR?INTERFACE?MAIN                       -----    -----      -----    -----
  +--> ?CO?MAIN
  +--> ?PR?_DISP_PHOTO?LCD_ALI
  +--> ?PR?_GUI_RECTANGLE?LCD_ALI

?PR?_DISP_PHOTO?LCD_ALI                  -----    -----      10A3H    0010H
  +--> ?PR?_LCD_SETWINDOWS?LCD_ALI
  +--> ?PR?_LCD_WDR?LCD_ALI

BL51 BANKED LINKER/LOCATER V6.22                                                      04/07/2021  23:27:21  PAGE 5


?PR?_GUI_RECTANGLE?LCD_ALI               -----    -----      10A3H    0008H
  +--> ?PR?_GUI_HORZ?LCD_ALI
  +--> ?PR?_GUI_VERT?LCD_ALI

?PR?_GUI_HORZ?LCD_ALI                    -----    -----      10ABH    0006H
  +--> ?PR?_LCD_SETWINDOWS?LCD_ALI
  +--> ?PR?_LCD_WDR?LCD_ALI

?PR?_GUI_VERT?LCD_ALI                    -----    -----      10ABH    0006H
  +--> ?PR?_LCD_SETWINDOWS?LCD_ALI
  +--> ?PR?_LCD_WDR?LCD_ALI

?PR?_GUI_SHOWSTR?LCD_ALI                 -----    -----      10A3H    0009H
  +--> ?PR?_GUI_SHOWCHAR?LCD_ALI

?PR?_GUI_SHOWCHAR?LCD_ALI                -----    -----      10B0H    0010H
  +--> ?PR?_LCD_SETWINDOWS?LCD_ALI
  +--> ?CO?LCD_ALI
  +--> ?PR?_LCD_WDR?LCD_ALI
  +--> ?PR?_GUI_DRAWPOINT?LCD_ALI

?PR?_GUI_DRAWPOINT?LCD_ALI               -----    -----      10C0H    0002H
  +--> ?PR?_LCD_SETCURSOR?LCD_ALI
  +--> ?PR?_LCD_WDR?LCD_ALI

?PR?_LCD_SETCURSOR?LCD_ALI               -----    -----      10C2H    0002H
  +--> ?PR?_LCD_WIR?LCD_ALI
  +--> ?PR?_LCD_WDR?LCD_ALI
  +--> ?PR?LCD_WRITERAM_PREPARE?LCD_ALI

?PR?_GUI_SHOWNUM?LCD_ALI                 -----    -----      10A3H    000DH
  +--> ?PR?_MYPOW?LCD_ALI
  +--> ?PR?_GUI_SHOWCHAR?LCD_ALI

?PR?_MYPOW?LCD_ALI                       -----    -----      10B0H    0006H

?PR?READ7279_NUM?HD7279                  -----    -----      -----    -----
  +--> ?PR?READ7279_KEY?HD7279
  +--> ?CO?HD7279

?PR?READ7279_KEY?HD7279                  -----    -----      -----    -----
  +--> ?PR?_SEND7279B?HD7279
  +--> ?PR?RECEIVE7279B?HD7279

?PR?RECEIVE7279B?HD7279                  -----    -----      10A3H    0002H
  +--> ?PR?_DELAY7279?HD7279

?PR?_GUI_FILLREC?LCD_ALI                 -----    -----      10A3H    0010H
  +--> ?PR?_LCD_SETWINDOWS?LCD_ALI
  +--> ?PR?_LCD_WDR?LCD_ALI



SYMBOL TABLE OF MODULE:  test (MAIN)

  VALUE           TYPE          NAME
  ----------------------------------
BL51 BANKED LINKER/LOCATER V6.22                                                      04/07/2021  23:27:21  PAGE 6



  -------         MODULE        MAIN
  C:0000H         SYMBOL        _ICE_DUMMY_
  D:0080H         PUBLIC        P0
  B:0020H.0       PUBLIC        T0Flag
  D:0090H         PUBLIC        P1
  D:00A0H         PUBLIC        P2
  D:00B0H         PUBLIC        P3
  C:0814H         PUBLIC        TITLE
  D:00C0H         PUBLIC        P4
  D:00C8H         PUBLIC        P5
  D:00E8H         PUBLIC        P6
  X:1000H         PUBLIC        Mode
  D:00F8H         PUBLIC        P7
  C:8EB2H         PUBLIC        SANJIAO
  D:00A8H         PUBLIC        IE
  X:1001H         PUBLIC        S1Send
  X:1015H         PUBLIC        T0Count
  C:0CDCH         PUBLIC        CeLiang
  D:00B8H         PUBLIC        IP
  B:0098H.0       PUBLIC        RI
  B:00E8H.3       PUBLIC        ADCS
  B:0098H.1       PUBLIC        TI
  C:9278H         PUBLIC        INT3
  C:737DH         PUBLIC        INTTIMER0
  X:1017H         PUBLIC        DataMax
  D:00D8H         PUBLIC        CCON
  X:1019H         PUBLIC        ADOld
  C:4150H         PUBLIC        main
  B:0020H.1       PUBLIC        KeyFlag
  B:00E8H.2       PUBLIC        OUT0
  X:101BH         PUBLIC        F_Acc
  B:0020H.2       PUBLIC        TongDao
  B:0020H.3       PUBLIC        S1SendOver
  X:101DH         PUBLIC        ADRes
  D:0099H         PUBLIC        SBUF
  X:101FH         PUBLIC        F_Count
  D:0098H         PUBLIC        SCON
  X:1021H         PUBLIC        ADMul
  D:0088H         PUBLIC        TCON
  X:1025H         PUBLIC        S1Num
  X:1026H         PUBLIC        FRMS
  B:00F8H.6       PUBLIC        MISO
  B:00F8H.5       PUBLIC        MOSI
  X:102AH         PUBLIC        T_Acc
  X:102CH         PUBLIC        V_Acc
  B:0020H.4       PUBLIC        OneSec
  B:0020H.5       PUBLIC        MesOver
  X:1030H         PUBLIC        VRMS
  C:8925H         PUBLIC        GETSIN
  X:1034H         PUBLIC        XBNum
  D:008CH         PUBLIC        TH0
  D:008AH         PUBLIC        TL0
  X:1036H         PUBLIC        DisNum
  X:1037H         PUBLIC        DataMax1
  C:907DH         PUBLIC        _AD7323
  B:0088H.4       PUBLIC        TR0
BL51 BANKED LINKER/LOCATER V6.22                                                      04/07/2021  23:27:21  PAGE 7


  X:1039H         PUBLIC        X
  X:103BH         PUBLIC        Y
  C:8C9BH         PUBLIC        GETSQR
  X:103DH         PUBLIC        NumMax
  C:8F5CH         PUBLIC        INTUART1
  X:103FH         PUBLIC        KeyNum
  C:27C4H         PUBLIC        Dig1224
  X:1040H         PUBLIC        XBF
  B:00F8H.7       PUBLIC        SCK
  C:1EF4H         PUBLIC        JiBo
  C:1984H         PUBLIC        PinLv
  X:1068H         PUBLIC        AD_Acc
  X:106CH         PUBLIC        XBV
  X:1094H         PUBLIC        VPP
  C:8A79H         PUBLIC        InterFace
  D:00D0H         PUBLIC        PSW
  -------         PROC          GETSIN
  -------         DO            
  X:10A3H         SYMBOL        i
  -------         ENDDO         
  C:8925H         LINE#         46
  C:8925H         LINE#         47
  C:8925H         LINE#         49
  C:892CH         LINE#         50
  C:892CH         LINE#         51
  C:8990H         LINE#         52
  C:89B2H         LINE#         53
  C:89CEH         LINE#         54
  -------         ENDPROC       GETSIN
  -------         PROC          GETSQR
  -------         DO            
  D:0002H         SYMBOL        i
  -------         ENDDO         
  C:8C9BH         LINE#         56
  C:8C9BH         LINE#         57
  C:8C9BH         LINE#         59
  C:8C9EH         LINE#         60
  C:8C9EH         LINE#         61
  C:8CB4H         LINE#         62
  C:8CDDH         LINE#         65
  C:8D08H         LINE#         66
  C:8D15H         LINE#         67
  -------         ENDPROC       GETSQR
  -------         PROC          SANJIAO
  -------         DO            
  D:0004H         SYMBOL        i
  -------         ENDDO         
  C:8EB2H         LINE#         69
  C:8EB2H         LINE#         70
  C:8EB2H         LINE#         72
  C:8EB5H         LINE#         73
  C:8EB5H         LINE#         74
  C:8EBEH         LINE#         75
  C:8ECCH         LINE#         77
  C:8EFDH         LINE#         78
  C:8F0AH         LINE#         79
  -------         ENDPROC       SANJIAO
BL51 BANKED LINKER/LOCATER V6.22                                                      04/07/2021  23:27:21  PAGE 8


  -------         PROC          MAIN
  -------         DO            
  X:1099H         SYMBOL        VPP1
  X:109DH         SYMBOL        vrms1
  X:10A1H         SYMBOL        i
  -------         ENDDO         
  C:4150H         LINE#         82
  C:4150H         LINE#         83
  C:4150H         LINE#         87
  C:4153H         LINE#         90
  C:4156H         LINE#         91
  C:4170H         LINE#         92
  C:424DH         LINE#         93
  C:425EH         LINE#         95
  C:4261H         LINE#         97
  C:4266H         LINE#         98
  C:427FH         LINE#         99
  C:4298H         LINE#         101
  C:429BH         LINE#         102
  C:42A2H         LINE#         103
  C:42A5H         LINE#         123
  C:42A5H         LINE#         125
  C:42ABH         LINE#         126
  C:42ADH         LINE#         128
  C:42B8H         LINE#         132
  C:4363H         LINE#         133
  C:440DH         LINE#         137
  C:443FH         LINE#         138
  C:4465H         LINE#         140
  C:44B2H         LINE#         141
  C:4511H         LINE#         142
  C:456FH         LINE#         143
  C:4593H         LINE#         144
  C:45F0H         LINE#         149
  C:4604H         LINE#         150
  C:4621H         LINE#         151
  C:462BH         LINE#         152
  C:462BH         LINE#         153
  C:4687H         LINE#         154
  C:46E6H         LINE#         155
  C:4744H         LINE#         156
  C:47A1H         LINE#         157
  C:47C5H         LINE#         158
  C:4809H         LINE#         159
  C:480CH         LINE#         161
  C:480CH         LINE#         162
  C:4868H         LINE#         163
  C:48C7H         LINE#         164
  C:4925H         LINE#         165
  C:4982H         LINE#         166
  C:49D6H         LINE#         167
  C:49FAH         LINE#         168
  C:49FAH         LINE#         169
  C:4A17H         LINE#         171
  C:4A48H         LINE#         172
  C:4AA9H         LINE#         173
  C:4ACFH         LINE#         174
BL51 BANKED LINKER/LOCATER V6.22                                                      04/07/2021  23:27:21  PAGE 9


  C:4B2FH         LINE#         175
  C:4B8EH         LINE#         176
  C:4BE4H         LINE#         177
  C:4BECH         LINE#         178
  C:4BF4H         LINE#         179
  C:4BF4H         LINE#         180
  C:4C0DH         LINE#         181
  C:4C2CH         LINE#         182
  C:4C4CH         LINE#         183
  C:4C4CH         LINE#         186
  C:4C57H         LINE#         187
  C:4C5AH         LINE#         189
  C:4C76H         LINE#         190
  C:4D53H         LINE#         191
  C:4D64H         LINE#         193
  C:4D71H         LINE#         194
  C:4D8AH         LINE#         195
  C:4DAFH         LINE#         196
  C:4DC6H         LINE#         197
  C:4DD6H         LINE#         200
  C:4E0DH         LINE#         202
  C:4E50H         LINE#         203
  C:4EA0H         LINE#         204
  C:4EF0H         LINE#         205
  C:4F14H         LINE#         206
  C:4F58H         LINE#         208
  C:4F87H         LINE#         209
  C:4FC4H         LINE#         210
  C:4FEAH         LINE#         211
  C:503CH         LINE#         212
  C:508EH         LINE#         213
  C:50D4H         LINE#         219
  C:50D4H         LINE#         222
  C:50DFH         LINE#         223
  C:50E2H         LINE#         226
  C:50FFH         LINE#         227
  C:51DCH         LINE#         228
  C:51EDH         LINE#         241
  C:5209H         LINE#         242
  C:5225H         LINE#         244
  C:5235H         LINE#         246
  C:5251H         LINE#         247
  C:5287H         LINE#         248
  C:52B0H         LINE#         249
  C:52E9H         LINE#         250
  C:536BH         LINE#         251
  C:5379H         LINE#         252
  C:538AH         LINE#         258
  C:538AH         LINE#         259
  C:538AH         LINE#         261
  C:5390H         LINE#         262
  C:5392H         LINE#         263
  C:539CH         LINE#         264
  C:53BBH         LINE#         266
  C:53C6H         LINE#         267
  C:53C7H         LINE#         268
  C:53C7H         LINE#         269
BL51 BANKED LINKER/LOCATER V6.22                                                      04/07/2021  23:27:21  PAGE 10


  C:53C7H         LINE#         270
  C:53CAH         LINE#         271
  C:53CFH         LINE#         272
  C:53D1H         LINE#         273
  C:53D3H         LINE#         274
  C:53F2H         LINE#         275
  C:53FCH         LINE#         276
  C:5421H         LINE#         277
  C:5446H         LINE#         278
  C:5449H         LINE#         279
  C:544CH         LINE#         280
  C:544EH         LINE#         281
  C:5454H         LINE#         282
  C:5454H         LINE#         283
  C:545FH         LINE#         284
  C:5461H         LINE#         285
  C:5461H         LINE#         286
  C:5461H         LINE#         287
  C:5464H         LINE#         288
  C:5469H         LINE#         289
  C:546BH         LINE#         290
  C:546DH         LINE#         291
  C:548CH         LINE#         292
  C:5496H         LINE#         293
  C:54BBH         LINE#         294
  C:54E0H         LINE#         295
  C:54E3H         LINE#         296
  C:54E6H         LINE#         297
  C:54E8H         LINE#         298
  C:54EFH         LINE#         299
  C:54EFH         LINE#         300
  C:54F6H         LINE#         301
  C:54FBH         LINE#         302
  C:54FBH         LINE#         303
  C:54FBH         LINE#         304
  C:54FEH         LINE#         305
  C:5503H         LINE#         306
  C:5505H         LINE#         307
  C:5507H         LINE#         308
  C:550AH         LINE#         309
  C:550DH         LINE#         310
  C:550FH         LINE#         311
  C:5516H         LINE#         313
  C:5521H         LINE#         314
  C:553CH         LINE#         315
  C:55BAH         LINE#         316
  C:55BAH         LINE#         317
  C:55C5H         LINE#         318
  C:55E0H         LINE#         319
  -------         ENDPROC       MAIN
  -------         PROC          INTTIMER0
  -------         DO            
  X:1098H         SYMBOL        i
  -------         ENDDO         
  C:737DH         LINE#         326
  C:739AH         LINE#         329
  C:739CH         LINE#         331
BL51 BANKED LINKER/LOCATER V6.22                                                      04/07/2021  23:27:21  PAGE 11


  C:739FH         LINE#         332
  C:73A1H         LINE#         333
  C:73AEH         LINE#         334
  C:73D0H         LINE#         336
  C:73D0H         LINE#         339
  C:73D2H         LINE#         340
  C:73D2H         LINE#         341
  C:73D2H         LINE#         342
  C:73DDH         LINE#         343
  C:73FFH         LINE#         344
  C:7401H         LINE#         347
  C:7401H         LINE#         348
  C:7413H         LINE#         349
  C:742BH         LINE#         350
  C:742DH         LINE#         351
  C:742DH         LINE#         352
  C:746BH         LINE#         353
  C:7479H         LINE#         355
  C:7484H         LINE#         356
  C:74B2H         LINE#         357
  C:74D4H         LINE#         358
  C:74E2H         LINE#         359
  C:74E5H         LINE#         360
  C:7517H         LINE#         361
  C:752EH         LINE#         362
  C:7532H         LINE#         363
  C:7532H         LINE#         364
  C:7540H         LINE#         365
  C:754EH         LINE#         366
  C:755DH         LINE#         367
  C:755DH         LINE#         370
  C:7569H         LINE#         371
  C:7579H         LINE#         372
  C:75ABH         LINE#         373
  C:75CDH         LINE#         374
  C:75DBH         LINE#         375
  C:75E7H         LINE#         376
  C:75F2H         LINE#         377
  C:75F2H         LINE#         378
  C:75FAH         LINE#         379
  C:760AH         LINE#         380
  C:763CH         LINE#         381
  C:765EH         LINE#         382
  C:766CH         LINE#         383
  C:7678H         LINE#         384
  C:7683H         LINE#         385
  C:7683H         LINE#         386
  C:7685H         LINE#         387
  -------         ENDPROC       INTTIMER0
  -------         PROC          INTUART1
  -------         DO            
  D:0007H         SYMBOL        DAT
  -------         ENDDO         
  C:8F5CH         LINE#         389
  C:8F69H         LINE#         392
  C:8F6CH         LINE#         393
  C:8F6EH         LINE#         394
BL51 BANKED LINKER/LOCATER V6.22                                                      04/07/2021  23:27:21  PAGE 12


  C:8F70H         LINE#         395
  C:8F72H         LINE#         396
  C:8F72H         LINE#         397
  C:8F75H         LINE#         398
  C:8F77H         LINE#         399
  C:8F7DH         LINE#         400
  C:8F84H         LINE#         401
  C:8F93H         LINE#         403
  C:8F9AH         LINE#         404
  C:8F9AH         LINE#         405
  -------         ENDPROC       INTUART1
  -------         PROC          INT3
  C:9278H         LINE#         406
  C:9278H         LINE#         408
  C:927AH         LINE#         409
  -------         ENDPROC       INT3
  -------         PROC          INTERFACE
  C:8A79H         LINE#         410
  C:8A79H         LINE#         411
  C:8A79H         LINE#         412
  C:8A82H         LINE#         413
  C:8AA5H         LINE#         414
  C:8AACH         LINE#         415
  C:8AC3H         LINE#         416
  C:8ADCH         LINE#         417
  C:8AE6H         LINE#         418
  -------         ENDPROC       INTERFACE
  C:9076H         SYMBOL        L?0120
  C:9079H         SYMBOL        L?0121
  -------         PROC          L?0119
  -------         ENDPROC       L?0119
  C:9076H         SYMBOL        L?0120
  C:9079H         SYMBOL        L?0121
  -------         PROC          _AD7323
  D:0007H         SYMBOL        CMD
  -------         DO            
  D:0004H         SYMBOL        i
  D:0006H         SYMBOL        k
  D:0005H         SYMBOL        DataIn
  -------         ENDDO         
  C:907DH         LINE#         421
  C:907DH         LINE#         422
  C:907DH         LINE#         423
  C:9081H         LINE#         424
  C:9083H         LINE#         425
  C:9085H         LINE#         426
  C:9086H         LINE#         427
  C:908AH         LINE#         428
  C:9092H         LINE#         429
  C:9094H         LINE#         430
  C:909CH         LINE#         431
  C:909EH         LINE#         432
  C:90A5H         LINE#         433
  C:90A9H         LINE#         434
  C:90AEH         LINE#         435
  C:90B0H         LINE#         436
  -------         ENDPROC       _AD7323
BL51 BANKED LINKER/LOCATER V6.22                                                      04/07/2021  23:27:21  PAGE 13


  -------         ENDMOD        MAIN

  -------         MODULE        LCD_ALI
  C:0000H         SYMBOL        _ICE_DUMMY_
  C:8032H         PUBLIC        __draw_circle_8
  D:0080H         PUBLIC        P0
  C:565EH         PUBLIC        COLOR
  D:0090H         PUBLIC        P1
  D:00A0H         PUBLIC        P2
  D:00B0H         PUBLIC        P3
  D:00C0H         PUBLIC        P4
  D:00C8H         PUBLIC        P5
  B:00A8H.7       PUBLIC        EA
  D:00E8H         PUBLIC        P6
  D:00F8H         PUBLIC        P7
  C:566EH         PUBLIC        ASCII816
  D:00A8H         PUBLIC        IE
  C:5C6EH         PUBLIC        asc2_1206
  D:00B8H         PUBLIC        IP
  C:60E2H         PUBLIC        asc2_1608
  C:8151H         PUBLIC        _GUI_ShowNum
  C:7AACH         PUBLIC        _GUI_Circle
  C:89CFH         PUBLIC        _LCD_Clear
  C:9171H         PUBLIC        _LCD_WDR
  D:00D8H         PUBLIC        CCON
  C:87B2H         PUBLIC        _GUI_ShowStr
  C:91BDH         PUBLIC        _LCD_WIR
  D:0098H         PUBLIC        SCON
  D:0088H         PUBLIC        TCON
  B:00F8H.4       PUBLIC        LCD_RESET
  C:8FA5H         PUBLIC        _mypow
  X:10F5H         PUBLIC        BColor
  C:843BH         PUBLIC        _GUI_Font24
  C:8607H         PUBLIC        _GUI_Font16
  X:10F7H         PUBLIC        FColor
  C:78A9H         PUBLIC        LCD_Init
  B:00C0H.1       PUBLIC        LCD_CS
  C:834FH         PUBLIC        _GUI_Bmp16
  C:86E9H         PUBLIC        _DisP_Hanzi
  C:7C9EH         PUBLIC        _GUI_Line
  C:8F0BH         PUBLIC        _LCD_SetWindows
  C:918CH         PUBLIC        _delay_ms
  C:90EFH         PUBLIC        LCD_SetParam
  C:924CH         PUBLIC        LCD_WriteRAM_Prepare
  B:00F8H.3       PUBLIC        LCD_RS
  B:00C0H.2       PUBLIC        LCD_WR
  C:8262H         PUBLIC        _DisP_Photo
  C:8B97H         PUBLIC        _GUI_Rectangle
  C:9147H         PUBLIC        _GUI_DrawPoint
  C:8E4EH         PUBLIC        _LCD_SetCursor
  C:8D16H         PUBLIC        _GUI_Vert
  C:76A0H         PUBLIC        _GUI_ShowChar
  C:8523H         PUBLIC        _GUI_FillRec
  C:8C38H         PUBLIC        _GUI_Horz
  X:10F9H         PUBLIC        lcddev
  C:8D80H         PUBLIC        _DisP_Photo16_pro
  D:00D0H         PUBLIC        PSW
BL51 BANKED LINKER/LOCATER V6.22                                                      04/07/2021  23:27:21  PAGE 14


  -------         PROC          _DELAY_MS
  D:0006H         SYMBOL        count
  -------         DO            
  D:0004H         SYMBOL        i
  D:0002H         SYMBOL        j
  -------         ENDDO         
  C:918CH         LINE#         23
  C:918CH         LINE#         24
  C:918CH         LINE#         26
  C:919CH         LINE#         27
  C:91B1H         LINE#         28
  -------         ENDPROC       _DELAY_MS
  C:91B8H         SYMBOL        L?0186
  -------         PROC          L?0185
  -------         ENDPROC       L?0185
  C:91B8H         SYMBOL        L?0186
  -------         PROC          _LCD_WIR
  D:0004H         SYMBOL        Reg
  C:91BDH         LINE#         33
  C:91C1H         LINE#         34
  C:91C3H         LINE#         35
  C:91C5H         LINE#         36
  C:91C7H         LINE#         37
  C:91CBH         LINE#         38
  C:91CFH         LINE#         39
  C:91D1H         LINE#         40
  C:91D3H         LINE#         41
  C:91D5H         LINE#         42
  C:91D7H         LINE#         43
  -------         ENDPROC       _LCD_WIR
  C:9160H         SYMBOL        L?0172
  C:9162H         SYMBOL        L?0173
  C:9167H         SYMBOL        L?0174
  C:916AH         SYMBOL        L?0175
  C:916CH         SYMBOL        L?0176
  -------         PROC          L?0171
  -------         ENDPROC       L?0171
  C:9160H         SYMBOL        L?0172
  C:9162H         SYMBOL        L?0173
  C:9167H         SYMBOL        L?0174
  C:916AH         SYMBOL        L?0175
  C:916CH         SYMBOL        L?0176
  -------         PROC          _LCD_WDR
  D:0004H         SYMBOL        Data
  C:9171H         LINE#         48
  C:9175H         LINE#         49
  C:9177H         LINE#         50
  C:9179H         LINE#         51
  C:917BH         LINE#         52
  C:917FH         LINE#         53
  C:9183H         LINE#         54
  C:9185H         LINE#         55
  C:9187H         LINE#         56
  C:9189H         LINE#         57
  C:918BH         LINE#         58
  -------         ENDPROC       _LCD_WDR
  -------         PROC          LCD_WRITERAM_PREPARE
BL51 BANKED LINKER/LOCATER V6.22                                                      04/07/2021  23:27:21  PAGE 15


  C:924CH         LINE#         63
  C:924CH         LINE#         64
  C:924CH         LINE#         65
  -------         ENDPROC       LCD_WRITERAM_PREPARE
  -------         PROC          _LCD_SETWINDOWS
  X:10C0H         SYMBOL        xStar
  X:10C2H         SYMBOL        yStar
  D:0002H         SYMBOL        xEnd
  X:10C6H         SYMBOL        yEnd
  C:8F0BH         LINE#         71
  C:8F19H         LINE#         72
  C:8F19H         LINE#         73
  C:8F1FH         LINE#         74
  C:8F29H         LINE#         75
  C:8F2FH         LINE#         76
  C:8F34H         LINE#         77
  C:8F38H         LINE#         79
  C:8F3BH         LINE#         80
  C:8F45H         LINE#         81
  C:8F4BH         LINE#         82
  C:8F53H         LINE#         83
  C:8F59H         LINE#         85
  -------         ENDPROC       _LCD_SETWINDOWS
  -------         PROC          _LCD_SETCURSOR
  X:10C2H         SYMBOL        Xpos
  D:0002H         SYMBOL        Ypos
  C:8E4EH         LINE#         91
  C:8E5AH         LINE#         92
  C:8E5AH         LINE#         93
  C:8E60H         LINE#         94
  C:8E6AH         LINE#         95
  C:8E70H         LINE#         96
  C:8E7FH         LINE#         97
  C:8E8BH         LINE#         99
  C:8E8EH         LINE#         100
  C:8E95H         LINE#         101
  C:8E9AH         LINE#         102
  C:8EA5H         LINE#         103
  C:8EAFH         LINE#         104
  -------         ENDPROC       _LCD_SETCURSOR
  -------         PROC          LCD_SETPARAM
  C:90EFH         LINE#         110
  C:90EFH         LINE#         111
  C:90EFH         LINE#         112
  C:90F8H         LINE#         113
  C:90FFH         LINE#         114
  C:9108H         LINE#         116
  C:910EH         LINE#         117
  C:9116H         LINE#         118
  C:911EH         LINE#         119
  C:9125H         LINE#         120
  -------         ENDPROC       LCD_SETPARAM
  -------         PROC          LCD_INIT
  C:78A9H         LINE#         132
  C:78A9H         LINE#         133
  C:78A9H         LINE#         134
  C:78ABH         LINE#         135
BL51 BANKED LINKER/LOCATER V6.22                                                      04/07/2021  23:27:21  PAGE 16


  C:78B2H         LINE#         136
  C:78B4H         LINE#         137
  C:78B7H         LINE#         138
  C:78B9H         LINE#         139
  C:78BCH         LINE#         142
  C:78C1H         LINE#         143
  C:78C6H         LINE#         144
  C:78CBH         LINE#         145
  C:78D0H         LINE#         147
  C:78DAH         LINE#         149
  C:78E4H         LINE#         151
  C:78F3H         LINE#         153
  C:7902H         LINE#         155
  C:7914H         LINE#         157
  C:791EH         LINE#         159
  C:7928H         LINE#         161
  C:7937H         LINE#         168
  C:794BH         LINE#         169
  C:795CH         LINE#         170
  C:7966H         LINE#         171
  C:796EH         LINE#         172
  C:7982H         LINE#         178
  C:7989H         LINE#         179
  C:798CH         LINE#         180
  C:7996H         LINE#         181
  C:79A3H         LINE#         183
  C:79B4H         LINE#         184
  C:79B9H         LINE#         185
  C:79C6H         LINE#         187
  C:79D3H         LINE#         188
  C:79DFH         LINE#         189
  C:79E2H         LINE#         195
  C:79F1H         LINE#         196
  C:7A05H         LINE#         197
  C:7A19H         LINE#         198
  C:7A20H         LINE#         199
  C:7A23H         LINE#         205
  C:7A37H         LINE#         206
  C:7A4BH         LINE#         207
  C:7A5FH         LINE#         208
  C:7A66H         LINE#         209
  C:7A69H         LINE#         210
  C:7A6EH         LINE#         211
  C:7A73H         LINE#         214
  C:7A7CH         LINE#         216
  C:7A82H         LINE#         217
  C:7A8AH         LINE#         218
  C:7A92H         LINE#         219
  C:7A9BH         LINE#         220
  C:7AA2H         LINE#         221
  C:7AA7H         LINE#         222
  -------         ENDPROC       LCD_INIT
  -------         PROC          _LCD_CLEAR
  X:10A3H         SYMBOL        Color
  -------         DO            
  X:10A5H         SYMBOL        i
  X:10A9H         SYMBOL        POW
BL51 BANKED LINKER/LOCATER V6.22                                                      04/07/2021  23:27:21  PAGE 17


  -------         ENDDO         
  C:89CFH         LINE#         238
  C:89D7H         LINE#         239
  C:89D7H         LINE#         240
  C:89E1H         LINE#         241
  C:89F8H         LINE#         242
  C:8A22H         LINE#         243
  C:8A4EH         LINE#         244
  C:8A78H         LINE#         245
  -------         ENDPROC       _LCD_CLEAR
  C:912DH         SYMBOL        L?0178
  C:912EH         SYMBOL        L?0179
  C:913EH         SYMBOL        L?0180
  C:9141H         SYMBOL        L?0181
  C:9142H         SYMBOL        L?0182
  -------         PROC          L?0177
  -------         ENDPROC       L?0177
  C:912DH         SYMBOL        L?0178
  C:912EH         SYMBOL        L?0179
  C:913EH         SYMBOL        L?0180
  C:9141H         SYMBOL        L?0181
  C:9142H         SYMBOL        L?0182
  -------         PROC          _GUI_DRAWPOINT
  D:0006H         SYMBOL        X
  D:0004H         SYMBOL        Y
  X:10C0H         SYMBOL        Color
  C:9147H         LINE#         250
  C:914FH         LINE#         251
  C:914FH         LINE#         252
  C:9152H         LINE#         253
  -------         ENDPROC       _GUI_DRAWPOINT
  -------         PROC          L?0184
  -------         ENDPROC       L?0184
  -------         PROC          _GUI_HORZ
  X:10ABH         SYMBOL        X
  X:10ADH         SYMBOL        Y
  X:10AFH         SYMBOL        Width
  C:8C38H         LINE#         259
  C:8C4EH         LINE#         260
  C:8C4EH         LINE#         261
  C:8C7FH         LINE#         262
  C:8C8DH         LINE#         263
  C:8C9AH         LINE#         264
  -------         ENDPROC       _GUI_HORZ
  -------         PROC          _GUI_VERT
  X:10ABH         SYMBOL        X
  X:10ADH         SYMBOL        Y
  X:10AFH         SYMBOL        Height
  C:8D16H         LINE#         269
  C:8D2EH         LINE#         270
  C:8D2EH         LINE#         271
  C:8D64H         LINE#         272
  C:8D72H         LINE#         273
  C:8D7FH         LINE#         274
  -------         ENDPROC       _GUI_VERT
  -------         PROC          _GUI_LINE
  X:10C8H         SYMBOL        x1
BL51 BANKED LINKER/LOCATER V6.22                                                      04/07/2021  23:27:21  PAGE 18


  X:10CAH         SYMBOL        y1
  D:0002H         SYMBOL        x2
  X:10CEH         SYMBOL        y2
  -------         DO            
  X:10D0H         SYMBOL        t
  X:10D2H         SYMBOL        xerr
  X:10D4H         SYMBOL        yerr
  X:10D6H         SYMBOL        delta_x
  X:10D8H         SYMBOL        delta_y
  X:10DAH         SYMBOL        distance
  X:10DCH         SYMBOL        incx
  X:10DEH         SYMBOL        incy
  X:10E0H         SYMBOL        uRow
  X:10E2H         SYMBOL        uCol
  -------         ENDDO         
  C:7C9EH         LINE#         279
  C:7CACH         LINE#         280
  C:7CACH         LINE#         282
  C:7CB7H         LINE#         285
  C:7CCCH         LINE#         286
  C:7CE7H         LINE#         287
  C:7CF6H         LINE#         288
  C:7CFCH         LINE#         289
  C:7D0EH         LINE#         290
  C:7D18H         LINE#         292
  C:7D1CH         LINE#         293
  C:7D24H         LINE#         294
  C:7D24H         LINE#         295
  C:7D39H         LINE#         296
  C:7D4BH         LINE#         297
  C:7D55H         LINE#         299
  C:7D59H         LINE#         300
  C:7D61H         LINE#         301
  C:7D61H         LINE#         302
  C:7D76H         LINE#         303
  C:7D95H         LINE#         304
  C:7D9CH         LINE#         306
  C:7DA1H         LINE#         307
  C:7DC6H         LINE#         308
  C:7DDAH         LINE#         309
  C:7DEEH         LINE#         310
  C:7E02H         LINE#         311
  C:7E1EH         LINE#         312
  C:7E2AH         LINE#         313
  C:7E3EH         LINE#         314
  C:7E5AH         LINE#         315
  C:7E66H         LINE#         316
  C:7E7AH         LINE#         317
  C:7E8BH         LINE#         318
  -------         ENDPROC       _GUI_LINE
  -------         PROC          _GUI_RECTANGLE
  X:10A3H         SYMBOL        X1
  X:10A5H         SYMBOL        Y1
  X:10A7H         SYMBOL        X2
  X:10A9H         SYMBOL        Y2
  C:8B97H         LINE#         323
  C:8BADH         LINE#         324
BL51 BANKED LINKER/LOCATER V6.22                                                      04/07/2021  23:27:21  PAGE 19


  C:8BADH         LINE#         325
  C:8BB0H         LINE#         326
  C:8BC3H         LINE#         327
  C:8BEFH         LINE#         328
  -------         ENDPROC       _GUI_RECTANGLE
  -------         PROC          _GUI_FILLREC
  X:10A3H         SYMBOL        SX
  X:10A5H         SYMBOL        SY
  D:0002H         SYMBOL        EX
  X:10A9H         SYMBOL        EY
  X:10ABH         SYMBOL        Color
  -------         DO            
  X:10ADH         SYMBOL        i
  D:0002H         SYMBOL        j
  X:10AFH         SYMBOL        width
  X:10B1H         SYMBOL        height
  -------         ENDDO         
  C:8523H         LINE#         334
  C:8531H         LINE#         335
  C:8531H         LINE#         337
  C:854CH         LINE#         338
  C:856DH         LINE#         339
  C:858FH         LINE#         341
  C:85ABH         LINE#         342
  C:85BBH         LINE#         343
  C:85DDH         LINE#         344
  -------         ENDPROC       _GUI_FILLREC
  -------         PROC          L?0183
  -------         ENDPROC       L?0183
  -------         PROC          __DRAW_CIRCLE_8
  X:1149H         SYMBOL        xc
  X:114BH         SYMBOL        yc
  X:114DH         SYMBOL        x
  X:114FH         SYMBOL        y
  X:1151H         SYMBOL        Color
  C:8032H         LINE#         349
  C:804AH         LINE#         350
  C:804AH         LINE#         351
  C:8052H         LINE#         352
  C:806DH         LINE#         353
  C:8098H         LINE#         354
  C:80C4H         LINE#         355
  C:80DAH         LINE#         356
  C:80F1H         LINE#         357
  C:811CH         LINE#         358
  -------         ENDPROC       __DRAW_CIRCLE_8
  -------         PROC          _GUI_CIRCLE
  X:10E4H         SYMBOL        xc
  X:10E6H         SYMBOL        yc
  X:10E8H         SYMBOL        Color
  X:10EAH         SYMBOL        r
  X:10ECH         SYMBOL        fill
  -------         DO            
  X:10EDH         SYMBOL        x
  X:10EFH         SYMBOL        y
  X:10F1H         SYMBOL        yi
  X:10F3H         SYMBOL        d
BL51 BANKED LINKER/LOCATER V6.22                                                      04/07/2021  23:27:21  PAGE 20


  -------         ENDDO         
  C:7AACH         LINE#         364
  C:7AC0H         LINE#         365
  C:7AC0H         LINE#         366
  C:7AD7H         LINE#         367
  C:7AEBH         LINE#         368
  C:7AF4H         LINE#         369
  C:7B13H         LINE#         370
  C:7B36H         LINE#         371
  C:7B61H         LINE#         372
  C:7B71H         LINE#         373
  C:7B94H         LINE#         374
  C:7B94H         LINE#         375
  C:7BC9H         LINE#         376
  C:7BD7H         LINE#         377
  C:7BEBH         LINE#         378
  C:7BEBH         LINE#         379
  C:7BEBH         LINE#         380
  C:7C0AH         LINE#         381
  C:7C16H         LINE#         382
  C:7C26H         LINE#         383
  C:7C49H         LINE#         384
  C:7C49H         LINE#         385
  C:7C7EH         LINE#         386
  C:7C8CH         LINE#         387
  C:7C9DH         LINE#         388
  C:7C9DH         LINE#         389
  -------         ENDPROC       _GUI_CIRCLE
  -------         PROC          _GUI_BMP16
  X:1106H         SYMBOL        X1
  X:1108H         SYMBOL        Y1
  X:110AH         SYMBOL        X2
  X:110CH         SYMBOL        Y2
  X:110EH         SYMBOL        p
  -------         DO            
  X:1111H         SYMBOL        i
  D:0003H         SYMBOL        picH
  X:1113H         SYMBOL        picL
  -------         ENDDO         
  C:834FH         LINE#         394
  C:8363H         LINE#         395
  C:8363H         LINE#         398
  C:8377H         LINE#         399
  C:83C4H         LINE#         400
  C:83E5H         LINE#         401
  C:83F2H         LINE#         402
  C:8411H         LINE#         403
  -------         ENDPROC       _GUI_BMP16
  -------         PROC          _DISP_PHOTO
  X:10A3H         SYMBOL        X1
  X:10A5H         SYMBOL        Y1
  X:10A7H         SYMBOL        X2
  X:10A9H         SYMBOL        Y2
  X:10ABH         SYMBOL        P
  X:10AEH         SYMBOL        INVERT
  -------         DO            
  D:0002H         SYMBOL        j
BL51 BANKED LINKER/LOCATER V6.22                                                      04/07/2021  23:27:21  PAGE 21


  D:0003H         SYMBOL        k
  D:0001H         SYMBOL        LCDDATA
  X:10AFH         SYMBOL        Capacity
  X:10B1H         SYMBOL        i
  -------         ENDDO         
  C:8262H         LINE#         410
  C:8276H         LINE#         411
  C:8276H         LINE#         415
  C:828AH         LINE#         417
  C:82CBH         LINE#         419
  C:82EEH         LINE#         420
  C:82EEH         LINE#         421
  C:82FDH         LINE#         422
  C:8307H         LINE#         423
  C:8309H         LINE#         424
  C:830BH         LINE#         425
  C:830BH         LINE#         426
  C:830FH         LINE#         427
  C:830FH         LINE#         428
  C:8315H         LINE#         429
  C:831AH         LINE#         431
  C:831DH         LINE#         432
  C:831FH         LINE#         434
  C:831FH         LINE#         435
  C:8325H         LINE#         436
  C:832AH         LINE#         438
  C:8335H         LINE#         439
  C:8335H         LINE#         440
  C:8339H         LINE#         441
  C:833EH         LINE#         442
  C:834EH         LINE#         443
  -------         ENDPROC       _DISP_PHOTO
  -------         PROC          _DISP_PHOTO16_PRO
  X:113EH         SYMBOL        X1
  X:1140H         SYMBOL        Y1
  D:0002H         SYMBOL        X_len
  X:1144H         SYMBOL        Y_len
  X:1146H         SYMBOL        P
  C:8D80H         LINE#         449
  C:8D8EH         LINE#         450
  C:8D8EH         LINE#         451
  -------         ENDPROC       _DISP_PHOTO16_PRO
  -------         PROC          _DISP_HANZI
  X:1114H         SYMBOL        x
  X:1116H         SYMBOL        y
  X:1118H         SYMBOL        p
  X:111BH         SYMBOL        num
  X:111CH         SYMBOL        INVERT
  -------         DO            
  X:111DH         SYMBOL        pt
  X:1120H         SYMBOL        i
  X:1121H         SYMBOL        size
  -------         ENDDO         
  C:86E9H         LINE#         458
  C:8700H         LINE#         459
  C:8700H         LINE#         460
  C:8705H         LINE#         461
BL51 BANKED LINKER/LOCATER V6.22                                                      04/07/2021  23:27:21  PAGE 22


  C:8711H         LINE#         463
  C:871AH         LINE#         464
  C:871AH         LINE#         465
  C:871DH         LINE#         466
  C:8748H         LINE#         467
  C:87A8H         LINE#         468
  C:87AEH         LINE#         469
  C:87B1H         LINE#         470
  -------         ENDPROC       _DISP_HANZI
  -------         PROC          _GUI_SHOWCHAR
  X:10B0H         SYMBOL        X
  X:10B2H         SYMBOL        Y
  X:10B4H         SYMBOL        FC
  X:10B6H         SYMBOL        BC
  X:10B8H         SYMBOL        ASCII
  X:10B9H         SYMBOL        Size
  X:10BAH         SYMBOL        Mode
  -------         DO            
  X:10BBH         SYMBOL        temp
  X:10BCH         SYMBOL        pos
  X:10BDH         SYMBOL        t
  X:10BEH         SYMBOL        colortemp
  -------         ENDDO         
  C:76A0H         LINE#         477
  C:76B8H         LINE#         478
  C:76B8H         LINE#         481
  C:76C7H         LINE#         483
  C:76CEH         LINE#         484
  C:770CH         LINE#         485
  C:7715H         LINE#         486
  C:772AH         LINE#         487
  C:772EH         LINE#         488
  C:7745H         LINE#         490
  C:776CH         LINE#         491
  C:7780H         LINE#         492
  C:7787H         LINE#         493
  C:778CH         LINE#         495
  C:7797H         LINE#         496
  C:77A6H         LINE#         497
  C:77AFH         LINE#         498
  C:77AFH         LINE#         499
  C:77AFH         LINE#         500
  C:77C5H         LINE#         501
  C:77C9H         LINE#         502
  C:77E0H         LINE#         504
  C:7807H         LINE#         505
  C:781CH         LINE#         506
  C:782BH         LINE#         507
  C:7832H         LINE#         508
  C:7858H         LINE#         509
  C:7867H         LINE#         510
  C:7870H         LINE#         511
  C:7870H         LINE#         512
  C:787FH         LINE#         513
  -------         ENDPROC       _GUI_SHOWCHAR
  -------         PROC          _GUI_SHOWSTR
  X:10A3H         SYMBOL        X
BL51 BANKED LINKER/LOCATER V6.22                                                      04/07/2021  23:27:21  PAGE 23


  X:10A5H         SYMBOL        Y
  X:10A7H         SYMBOL        Size
  X:10A8H         SYMBOL        p
  X:10ABH         SYMBOL        Mode
  C:87B2H         LINE#         520
  C:87C3H         LINE#         521
  C:87C3H         LINE#         522
  C:87E3H         LINE#         523
  C:881BH         LINE#         525
  C:8857H         LINE#         526
  C:886BH         LINE#         527
  C:8878H         LINE#         528
  -------         ENDPROC       _GUI_SHOWSTR
  -------         PROC          _MYPOW
  X:10B0H         SYMBOL        m
  X:10B1H         SYMBOL        n
  -------         DO            
  X:10B2H         SYMBOL        result
  -------         ENDDO         
  C:8FA5H         LINE#         532
  C:8FADH         LINE#         533
  C:8FADH         LINE#         534
  C:8FB5H         LINE#         535
  C:8FBFH         LINE#         536
  C:8FDFH         LINE#         537
  C:8FEDH         LINE#         538
  -------         ENDPROC       _MYPOW
  -------         PROC          _GUI_SHOWNUM
  X:10A3H         SYMBOL        X
  X:10A5H         SYMBOL        Y
  X:10A7H         SYMBOL        Num
  X:10ABH         SYMBOL        Len
  X:10ACH         SYMBOL        Size
  -------         DO            
  X:10ADH         SYMBOL        t
  X:10AEH         SYMBOL        temp
  X:10AFH         SYMBOL        enshow
  -------         ENDDO         
  C:8151H         LINE#         544
  C:815FH         LINE#         545
  C:815FH         LINE#         547
  C:8164H         LINE#         548
  C:8179H         LINE#         549
  C:81AAH         LINE#         550
  C:81BDH         LINE#         551
  C:81C1H         LINE#         552
  C:81FDH         LINE#         553
  C:81FFH         LINE#         555
  C:8205H         LINE#         556
  C:8261H         LINE#         557
  -------         ENDPROC       _GUI_SHOWNUM
  -------         PROC          _GUI_FONT16
  X:1122H         SYMBOL        X
  X:1124H         SYMBOL        Y
  X:1126H         SYMBOL        FC
  X:1128H         SYMBOL        BC
  X:112AH         SYMBOL        Str
BL51 BANKED LINKER/LOCATER V6.22                                                      04/07/2021  23:27:21  PAGE 24


  X:112DH         SYMBOL        Mode
  -------         DO            
  X:112EH         SYMBOL        i
  D:0001H         SYMBOL        j
  X:112FH         SYMBOL        FontB
  -------         ENDDO         
  C:8607H         LINE#         561
  C:861FH         LINE#         562
  C:861FH         LINE#         565
  C:864BH         LINE#         566
  C:8650H         LINE#         567
  C:866CH         LINE#         568
  C:866EH         LINE#         569
  C:8674H         LINE#         570
  C:867BH         LINE#         571
  C:8680H         LINE#         572
  C:8680H         LINE#         573
  C:868BH         LINE#         574
  C:868DH         LINE#         575
  C:868DH         LINE#         576
  C:8694H         LINE#         577
  C:86CCH         LINE#         578
  C:86CCH         LINE#         579
  C:86D3H         LINE#         580
  C:86D9H         LINE#         581
  C:86E8H         LINE#         582
  -------         ENDPROC       _GUI_FONT16
  -------         PROC          _GUI_FONT24
  X:1130H         SYMBOL        X
  X:1132H         SYMBOL        Y
  X:1134H         SYMBOL        FC
  X:1136H         SYMBOL        BC
  X:1138H         SYMBOL        Str
  X:113BH         SYMBOL        Mode
  -------         DO            
  X:113CH         SYMBOL        i
  D:0001H         SYMBOL        j
  X:113DH         SYMBOL        FontB
  -------         ENDDO         
  C:843BH         LINE#         586
  C:8453H         LINE#         587
  C:8453H         LINE#         590
  C:847FH         LINE#         591
  C:8484H         LINE#         592
  C:84A0H         LINE#         593
  C:84A2H         LINE#         594
  C:84A8H         LINE#         595
  C:84AFH         LINE#         596
  C:84B4H         LINE#         597
  C:84B4H         LINE#         598
  C:84BFH         LINE#         599
  C:84C1H         LINE#         600
  C:84C1H         LINE#         601
  C:84C8H         LINE#         602
  C:8506H         LINE#         603
  C:8506H         LINE#         604
  C:850DH         LINE#         605
BL51 BANKED LINKER/LOCATER V6.22                                                      04/07/2021  23:27:21  PAGE 25


  C:8513H         LINE#         606
  C:8522H         LINE#         607
  -------         ENDPROC       _GUI_FONT24
  -------         ENDMOD        LCD_ALI

  -------         MODULE        FFT
  C:0000H         SYMBOL        _ICE_DUMMY_
  X:0000H         PUBLIC        Fft_Real
  C:3150H         PUBLIC        COS_TAB
  C:2950H         PUBLIC        SIN_TAB
  C:6D93H         PUBLIC        FFT
  X:0800H         PUBLIC        Fft_Image
  C:3950H         PUBLIC        LIST_TAB
  -------         PROC          FFT
  -------         DO            
  X:10A3H         SYMBOL        i
  X:10A5H         SYMBOL        b
  X:10A7H         SYMBOL        k
  X:10A9H         SYMBOL        j
  X:10ABH         SYMBOL        p
  X:10ADH         SYMBOL        Temp_Real
  X:10B1H         SYMBOL        Temp_Imag
  X:10B5H         SYMBOL        temp
  -------         ENDDO         
  C:6D93H         LINE#         215
  C:6D93H         LINE#         216
  C:6D93H         LINE#         219
  C:6DB0H         LINE#         220
  C:6DB6H         LINE#         221
  C:6DD2H         LINE#         222
  C:6DFEH         LINE#         223
  C:6E04H         LINE#         224
  C:6E28H         LINE#         225
  C:6E3CH         LINE#         226
  C:6E52H         LINE#         227
  C:6E78H         LINE#         228
  C:6E93H         LINE#         229
  C:6ECCH         LINE#         230
  C:6FB6H         LINE#         231
  C:70C1H         LINE#         232
  C:71CDH         LINE#         233
  C:729AH         LINE#         234
  C:7354H         LINE#         235
  C:7368H         LINE#         236
  C:737CH         LINE#         237
  -------         ENDPROC       FFT
  -------         ENDMOD        FFT

  -------         MODULE        HD7279
  C:0000H         SYMBOL        _ICE_DUMMY_
  D:0080H         PUBLIC        P0
  D:0090H         PUBLIC        P1
  D:00A0H         PUBLIC        P2
  D:00B0H         PUBLIC        P3
  D:00C0H         PUBLIC        P4
  D:00C8H         PUBLIC        P5
  D:00E8H         PUBLIC        P6
BL51 BANKED LINKER/LOCATER V6.22                                                      04/07/2021  23:27:21  PAGE 26


  D:00F8H         PUBLIC        P7
  D:00A8H         PUBLIC        IE
  C:91D8H         PUBLIC        KeyTable
  D:00B8H         PUBLIC        IP
  C:9032H         PUBLIC        RECEIVE7279B
  D:00D8H         PUBLIC        CCON
  D:0098H         PUBLIC        SCON
  D:0088H         PUBLIC        TCON
  C:920EH         PUBLIC        _SEND7279_CMD_DATA
  C:9261H         PUBLIC        _SEND7279_CMD
  C:9232H         PUBLIC        READ7279_KEY
  C:90B1H         PUBLIC        _SEND7279B
  C:9257H         PUBLIC        READ7279_NUM
  C:9271H         PUBLIC        _DELAY7279
  B:00E8H.6       PUBLIC        DAT
  B:00E8H.7       PUBLIC        CLK
  B:00E8H.5       PUBLIC        CS7279
  D:00D0H         PUBLIC        PSW
  -------         PROC          _SEND7279B
  X:10A4H         SYMBOL        DATAOUT
  -------         DO            
  X:10A5H         SYMBOL        i
  -------         ENDDO         
  C:90B1H         LINE#         41
  C:90B6H         LINE#         42
  C:90B6H         LINE#         45
  C:90BBH         LINE#         46
  C:90C0H         LINE#         47
  C:90C7H         LINE#         48
  C:90CBH         LINE#         49
  C:90CBH         LINE#         50
  C:90CDH         LINE#         51
  C:90CFH         LINE#         52
  C:90D4H         LINE#         53
  C:90D6H         LINE#         54
  C:90DBH         LINE#         55
  C:90ECH         LINE#         56
  C:90EEH         LINE#         57
  -------         ENDPROC       _SEND7279B
  -------         PROC          RECEIVE7279B
  -------         DO            
  X:10A3H         SYMBOL        i
  X:10A4H         SYMBOL        DATAIN
  -------         ENDDO         
  C:9032H         LINE#         62
  C:9032H         LINE#         63
  C:9032H         LINE#         64
  C:9037H         LINE#         66
  C:9039H         LINE#         67
  C:903EH         LINE#         68
  C:9043H         LINE#         69
  C:9045H         LINE#         70
  C:904AH         LINE#         71
  C:9051H         LINE#         72
  C:9054H         LINE#         73
  C:9058H         LINE#         74
  C:905AH         LINE#         75
BL51 BANKED LINKER/LOCATER V6.22                                                      04/07/2021  23:27:21  PAGE 27


  C:906BH         LINE#         76
  C:906DH         LINE#         77
  C:9072H         LINE#         78
  -------         ENDPROC       RECEIVE7279B
  -------         PROC          _DELAY7279
  D:0007H         SYMBOL        num
  -------         DO            
  D:0007H         SYMBOL        i
  -------         ENDDO         
  C:9271H         LINE#         83
  C:9271H         LINE#         84
  C:9271H         LINE#         87
  C:9274H         LINE#         88
  C:9277H         LINE#         89
  -------         ENDPROC       _DELAY7279
  -------         PROC          _SEND7279_CMD
  D:0007H         SYMBOL        CMD
  C:9261H         LINE#         94
  C:9261H         LINE#         95
  C:9261H         LINE#         96
  C:9263H         LINE#         97
  C:9266H         LINE#         98
  C:9268H         LINE#         99
  -------         ENDPROC       _SEND7279_CMD
  -------         PROC          _SEND7279_CMD_DATA
  D:0007H         SYMBOL        CMD
  X:10A3H         SYMBOL        DATA
  C:920EH         LINE#         104
  C:9213H         LINE#         105
  C:9213H         LINE#         106
  C:9215H         LINE#         107
  C:9218H         LINE#         108
  C:9220H         LINE#         109
  C:9222H         LINE#         110
  -------         ENDPROC       _SEND7279_CMD_DATA
  -------         PROC          READ7279_KEY
  -------         DO            
  D:0007H         SYMBOL        KEYNUM
  -------         ENDDO         
  C:9232H         LINE#         115
  C:9232H         LINE#         116
  C:9232H         LINE#         119
  C:9234H         LINE#         120
  C:9239H         LINE#         121
  C:923CH         LINE#         122
  C:923EH         LINE#         123
  C:923EH         LINE#         124
  -------         ENDPROC       READ7279_KEY
  -------         PROC          READ7279_NUM
  C:9257H         LINE#         129
  C:9257H         LINE#         130
  C:9257H         LINE#         131
  C:9260H         LINE#         132
  -------         ENDPROC       READ7279_NUM
  -------         ENDMOD        HD7279

  -------         MODULE        STC_HW
BL51 BANKED LINKER/LOCATER V6.22                                                      04/07/2021  23:27:21  PAGE 28


  C:0000H         SYMBOL        _ICE_DUMMY_
  D:0092H         PUBLIC        P1M0
  D:0093H         PUBLIC        P0M1
  D:0096H         PUBLIC        P2M0
  D:0091H         PUBLIC        P1M1
  D:0080H         PUBLIC        P0
  D:00B2H         PUBLIC        P3M0
  D:0095H         PUBLIC        P2M1
  D:0090H         PUBLIC        P1
  D:00B4H         PUBLIC        P4M0
  D:00B1H         PUBLIC        P3M1
  D:00A0H         PUBLIC        P2
  D:00CAH         PUBLIC        P5M0
  D:00B3H         PUBLIC        P4M1
  D:00B0H         PUBLIC        P3
  D:00CCH         PUBLIC        P6M0
  D:00C9H         PUBLIC        P5M1
  D:00C0H         PUBLIC        P4
  D:00E2H         PUBLIC        P7M0
  D:00CBH         PUBLIC        P6M1
  D:00C8H         PUBLIC        P5
  B:00A8H.7       PUBLIC        EA
  D:00E1H         PUBLIC        P7M1
  D:00E8H         PUBLIC        P6
  D:00F8H         PUBLIC        P7
  D:00CEH         PUBLIC        SPCTL
  D:00A2H         PUBLIC        P_SW1
  D:00BAH         PUBLIC        P_SW2
  D:00A8H         PUBLIC        IE
  D:008FH         PUBLIC        INTCLKO
  B:00A8H.4       PUBLIC        ES
  D:00B8H         PUBLIC        IP
  C:8DE9H         PUBLIC        SystemInit
  D:00D8H         PUBLIC        CCON
  D:0098H         PUBLIC        SCON
  D:0089H         PUBLIC        TMOD
  D:0088H         PUBLIC        TCON
  D:008EH         PUBLIC        AUXR
  B:00A8H.1       PUBLIC        ET0
  D:008CH         PUBLIC        TH0
  D:00D6H         PUBLIC        T2H
  D:008AH         PUBLIC        TL0
  D:00D7H         PUBLIC        T2L
  C:923FH         PUBLIC        SPI_Conf
  C:9223H         PUBLIC        _SPI_Send
  C:9269H         PUBLIC        SPI_Recv
  D:00CDH         PUBLIC        SPSTAT
  D:00D0H         PUBLIC        PSW
  D:00CFH         PUBLIC        SPDAT
  D:0094H         PUBLIC        P0M0
  -------         PROC          SYSTEMINIT
  C:8DE9H         LINE#         27
  C:8DE9H         LINE#         28
  C:8DE9H         LINE#         30
  C:8DECH         LINE#         31
  C:8DEFH         LINE#         32
  C:8DF2H         LINE#         33
BL51 BANKED LINKER/LOCATER V6.22                                                      04/07/2021  23:27:21  PAGE 29


  C:8DF4H         LINE#         35
  C:8DF6H         LINE#         36
  C:8DF9H         LINE#         37
  C:8DFCH         LINE#         38
  C:8DFEH         LINE#         39
  C:8E01H         LINE#         40
  C:8E03H         LINE#         42
  C:8E06H         LINE#         43
  C:8E08H         LINE#         45
  C:8E0BH         LINE#         46
  C:8E0DH         LINE#         48
  C:8E10H         LINE#         49
  C:8E13H         LINE#         51
  C:8E16H         LINE#         52
  C:8E1CH         LINE#         53
  C:8E23H         LINE#         54
  C:8E28H         LINE#         55
  C:8E2DH         LINE#         58
  C:8E30H         LINE#         59
  C:8E33H         LINE#         60
  C:8E36H         LINE#         61
  C:8E38H         LINE#         64
  C:8E3AH         LINE#         70
  C:8E3DH         LINE#         71
  C:8E40H         LINE#         72
  C:8E43H         LINE#         73
  C:8E46H         LINE#         75
  C:8E48H         LINE#         77
  C:8E4BH         LINE#         78
  C:8E4DH         LINE#         80
  -------         ENDPROC       SYSTEMINIT
  -------         PROC          SPI_CONF
  C:923FH         LINE#         91
  C:923FH         LINE#         92
  C:923FH         LINE#         93
  C:9242H         LINE#         94
  C:9245H         LINE#         95
  C:9248H         LINE#         96
  C:924BH         LINE#         98
  -------         ENDPROC       SPI_CONF
  -------         PROC          _SPI_SEND
  D:0007H         SYMBOL        SPI_DATA
  C:9223H         LINE#         100
  C:9223H         LINE#         101
  C:9223H         LINE#         102
  C:9225H         LINE#         103
  C:922AH         LINE#         104
  C:922BH         LINE#         105
  C:922EH         LINE#         106
  C:922FH         LINE#         107
  C:9231H         LINE#         108
  -------         ENDPROC       _SPI_SEND
  -------         PROC          SPI_RECV
  C:9269H         LINE#         110
  C:9269H         LINE#         111
  C:9269H         LINE#         112
  C:926EH         LINE#         113
BL51 BANKED LINKER/LOCATER V6.22                                                      04/07/2021  23:27:21  PAGE 30


  C:9270H         LINE#         114
  -------         ENDPROC       SPI_RECV
  -------         ENDMOD        STC_HW

  -------         MODULE        ?C?FPMUL
  C:66D2H         PUBLIC        ?C?FPMUL
  -------         ENDMOD        ?C?FPMUL

  -------         MODULE        ?C?FPDIV
  C:67DBH         PUBLIC        ?C?FPDIV
  -------         ENDMOD        ?C?FPDIV

  -------         MODULE        ?C?FCAST
  C:6882H         PUBLIC        ?C?FCASTC
  C:687DH         PUBLIC        ?C?FCASTI
  C:6878H         PUBLIC        ?C?FCASTL
  -------         ENDMOD        ?C?FCAST

  -------         MODULE        ?C?CASTF
  C:68B6H         PUBLIC        ?C?CASTF
  -------         ENDMOD        ?C?CASTF

  -------         MODULE        SQRT
  C:887DH         PUBLIC        _SQRT
  -------         ENDMOD        SQRT

  -------         MODULE        SIN
  C:7ED4H         PUBLIC        _COS
  C:7EEAH         PUBLIC        _SIN
  C:7F26H         PUBLIC        _TAN
  -------         ENDMOD        SIN

  -------         MODULE        ?C?FPADD
  C:693EH         PUBLIC        ?C?FPADD
  C:693AH         PUBLIC        ?C?FPSUB
  -------         ENDMOD        ?C?FPADD

  -------         MODULE        ?C?CLDPTR
  C:6A7CH         PUBLIC        ?C?CLDPTR
  -------         ENDMOD        ?C?CLDPTR

  -------         MODULE        ?C?CLDOPTR
  C:6A95H         PUBLIC        ?C?CLDOPTR
  -------         ENDMOD        ?C?CLDOPTR

  -------         MODULE        ?C?IMUL
  C:6AC2H         PUBLIC        ?C?IMUL
  -------         ENDMOD        ?C?IMUL

  -------         MODULE        ?C?UIDIV
  C:6AD4H         PUBLIC        ?C?UIDIV
  -------         ENDMOD        ?C?UIDIV

  -------         MODULE        ?C?SIDIV
  C:6B29H         PUBLIC        ?C?SIDIV
  -------         ENDMOD        ?C?SIDIV

BL51 BANKED LINKER/LOCATER V6.22                                                      04/07/2021  23:27:21  PAGE 31


  -------         MODULE        ?C?IILDX
  C:6B5FH         PUBLIC        ?C?IILDX
  -------         ENDMOD        ?C?IILDX

  -------         MODULE        ?C?ILDIX
  C:6B75H         PUBLIC        ?C?ILDIX
  -------         ENDMOD        ?C?ILDIX

  -------         MODULE        ?C?LMUL
  C:6B8BH         PUBLIC        ?C?LMUL
  -------         ENDMOD        ?C?LMUL

  -------         MODULE        ?C?ULDIV
  C:6C16H         PUBLIC        ?C?ULDIV
  -------         ENDMOD        ?C?ULDIV

  -------         MODULE        ?C?SLDIV
  C:8FEEH         PUBLIC        ?C?SLDIV
  -------         ENDMOD        ?C?SLDIV

  -------         MODULE        ?C?LNEG
  C:6CA8H         PUBLIC        ?C?LNEG
  -------         ENDMOD        ?C?LNEG

  -------         MODULE        ?C?SLCMP
  C:6CB6H         PUBLIC        ?C?SLCMP
  -------         ENDMOD        ?C?SLCMP

  -------         MODULE        ?C?ULCMP
  C:6CCCH         PUBLIC        ?C?ULCMP
  -------         ENDMOD        ?C?ULCMP

  -------         MODULE        ?C?SLSHR
  C:6CDDH         PUBLIC        ?C?SLSHR
  -------         ENDMOD        ?C?SLSHR

  -------         MODULE        ?C?LLDXDATA
  C:6CF1H         PUBLIC        ?C?LLDXDATA
  -------         ENDMOD        ?C?LLDXDATA

  -------         MODULE        ?C?LLDCODE
  C:6CFDH         PUBLIC        ?C?LLDCODE
  -------         ENDMOD        ?C?LLDCODE

  -------         MODULE        ?C?LLDXDATA0
  C:6D0DH         PUBLIC        ?C?LLDXDATA0
  -------         ENDMOD        ?C?LLDXDATA0

  -------         MODULE        ?C?LLDCODE0
  C:6D19H         PUBLIC        ?C?LLDCODE0
  -------         ENDMOD        ?C?LLDCODE0

  -------         MODULE        ?C?LSTXDATA
  C:6D29H         PUBLIC        ?C?LSTXDATA
  -------         ENDMOD        ?C?LSTXDATA

  -------         MODULE        ?C?LSTKXDATA
BL51 BANKED LINKER/LOCATER V6.22                                                      04/07/2021  23:27:21  PAGE 32


  C:6D35H         PUBLIC        ?C?LSTKXDATA
  -------         ENDMOD        ?C?LSTKXDATA

  -------         MODULE        ?C?LIMUL
  C:6D66H         PUBLIC        ?C?LIMUL
  -------         ENDMOD        ?C?LIMUL

*** WARNING L16: UNCALLED SEGMENT, IGNORED FOR OVERLAY PROCESS
    SEGMENT: ?PR?GETSQR?MAIN

*** WARNING L16: UNCALLED SEGMENT, IGNORED FOR OVERLAY PROCESS
    SEGMENT: ?PR?SANJIAO?MAIN

*** WARNING L16: UNCALLED SEGMENT, IGNORED FOR OVERLAY PROCESS
    SEGMENT: ?PR?LCD_SETPARAM?LCD_ALI

*** WARNING L16: UNCALLED SEGMENT, IGNORED FOR OVERLAY PROCESS
    SEGMENT: ?PR?_GUI_LINE?LCD_ALI

*** WARNING L16: UNCALLED SEGMENT, IGNORED FOR OVERLAY PROCESS
    SEGMENT: ?PR?_GUI_CIRCLE?LCD_ALI

*** WARNING L16: UNCALLED SEGMENT, IGNORED FOR OVERLAY PROCESS
    SEGMENT: ?PR?_DISP_PHOTO16_PRO?LCD_ALI

*** WARNING L16: UNCALLED SEGMENT, IGNORED FOR OVERLAY PROCESS
    SEGMENT: ?PR?_DISP_HANZI?LCD_ALI

*** WARNING L16: UNCALLED SEGMENT, IGNORED FOR OVERLAY PROCESS
    SEGMENT: ?PR?_GUI_FONT16?LCD_ALI

*** WARNING L16: UNCALLED SEGMENT, IGNORED FOR OVERLAY PROCESS
    SEGMENT: ?PR?_GUI_FONT24?LCD_ALI

*** WARNING L16: UNCALLED SEGMENT, IGNORED FOR OVERLAY PROCESS
    SEGMENT: ?PR?SPI_CONF?STC_HW

*** WARNING L16: UNCALLED SEGMENT, IGNORED FOR OVERLAY PROCESS
    SEGMENT: ?PR?SPI_RECV?STC_HW

******************************************************************************
* RESTRICTED VERSION WITH 0800H BYTE CODE SIZE LIMIT; USED: 80BEH BYTE (1609%) *
******************************************************************************

Program Size: data=9.7 xdata=4435 code=35463
LINK/LOCATE RUN COMPLETE.  11 WARNING(S),  0 ERROR(S)

*** WARNING L16: UNCALLED SEGMENT, IGNORED FOR OVERLAY PROCESS
    SEGMENT: ?PR?GETSQR?MAIN

*** WARNING L16: UNCALLED SEGMENT, IGNORED FOR OVERLAY PROCESS
    SEGMENT: ?PR?SANJIAO?MAIN

*** WARNING L16: UNCALLED SEGMENT, IGNORED FOR OVERLAY PROCESS
    SEGMENT: ?PR?LCD_SETPARAM?LCD_ALI

*** WARNING L16: UNCALLED SEGMENT, IGNORED FOR OVERLAY PROCESS
BL51 BANKED LINKER/LOCATER V6.22                                                      04/07/2021  23:27:21  PAGE 33


    SEGMENT: ?PR?_GUI_LINE?LCD_ALI

*** WARNING L16: UNCALLED SEGMENT, IGNORED FOR OVERLAY PROCESS
    SEGMENT: ?PR?_GUI_CIRCLE?LCD_ALI

*** WARNING L16: UNCALLED SEGMENT, IGNORED FOR OVERLAY PROCESS
    SEGMENT: ?PR?_DISP_PHOTO16_PRO?LCD_ALI

*** WARNING L16: UNCALLED SEGMENT, IGNORED FOR OVERLAY PROCESS
    SEGMENT: ?PR?_DISP_HANZI?LCD_ALI

*** WARNING L16: UNCALLED SEGMENT, IGNORED FOR OVERLAY PROCESS
    SEGMENT: ?PR?_GUI_FONT16?LCD_ALI

*** WARNING L16: UNCALLED SEGMENT, IGNORED FOR OVERLAY PROCESS
    SEGMENT: ?PR?_GUI_FONT24?LCD_ALI

*** WARNING L16: UNCALLED SEGMENT, IGNORED FOR OVERLAY PROCESS
    SEGMENT: ?PR?SPI_CONF?STC_HW

*** WARNING L16: UNCALLED SEGMENT, IGNORED FOR OVERLAY PROCESS
    SEGMENT: ?PR?SPI_RECV?STC_HW

*** FATAL ERROR L250: CODE SIZE LIMIT IN RESTRICTED VERSION EXCEEDED
    MODULE:  F:\KEIL\C51\LIB\C51L.LIB (-----)
    LIMIT:   0800H BYTES